; Function Attrs: mustprogress nofree norecurse nosync nounwind willreturn memory(read, argmem: readwrite, inaccessiblemem: none) uwtable
define void @_ZN11GLLogStream11setBookmarkEv(ptr nocapture noundef nonnull align 8 dereferenceable(40) %0) local_unnamed_addr #9 align 2 {
  %2 = getelementptr inbounds i8, ptr %0, i64 24
  %3 = load ptr, ptr %2, align 8
  %4 = getelementptr inbounds i8, ptr %3, i64 12
  %5 = load i32, ptr %4, align 4
  %6 = getelementptr inbounds i8, ptr %3, i64 8
  %7 = load i32, ptr %6, align 8
  %8 = sub nsw i32 %5, %7
  %9 = getelementptr inbounds i8, ptr %0, i64 16
  store i32 %8, ptr %9, align 8
  ret void
}